target datalayout = "e-m:e-p270:32:32-p271:32:32-p272:64:64-i64:64-i128:128-f80:128-n8:16:32:64-S128"
target triple = "x86_64-unknown-linux-gnu"

%class.symbol = type { ptr }
%class.param_descrs = type { ptr }
%"struct.param_descrs::imp" = type { %class.map, %class.svector }
%class.map = type { %class.table2map }
%class.table2map = type { %class.core_hashtable }
%class.core_hashtable = type <{ ptr, i32, i32, i32, [4 x i8] }>
%class.svector = type { %class.vector }
%class.vector = type { ptr }
%struct._key_data = type { %class.symbol, %"struct.param_descrs::imp::info" }
%"struct.param_descrs::imp::info" = type { i32, ptr, ptr, ptr }

; Function Attrs: mustprogress nounwind uwtable
define linkonce_odr hidden void @_ZN12param_descrs3imp4infoC2Ev(ptr noundef nonnull align 8 dereferenceable(32) %this) unnamed_addr #4 comdat align 2 {
entry:
  %this.addr = alloca ptr, align 8
  store ptr %this, ptr %this.addr, align 8
  %this1 = load ptr, ptr %this.addr, align 8
  %m_kind = getelementptr inbounds %"struct.param_descrs::imp::info", ptr %this1, i32 0, i32 0
  store i32 19, ptr %m_kind, align 8
  %m_descr = getelementptr inbounds %"struct.param_descrs::imp::info", ptr %this1, i32 0, i32 1
  store ptr null, ptr %m_descr, align 8
  %m_default = getelementptr inbounds %"struct.param_descrs::imp::info", ptr %this1, i32 0, i32 2
  store ptr null, ptr %m_default, align 8
  %m_module = getelementptr inbounds %"struct.param_descrs::imp::info", ptr %this1, i32 0, i32 3
  store ptr null, ptr %m_module, align 8
  ret void
}

; Function Attrs: mustprogress uwtable
define linkonce_odr hidden void @_ZN9_key_dataI6symbolN12param_descrs3imp4infoEEC2ERKS0_(ptr noundef nonnull align 8 dereferenceable(40) %this, ptr noundef nonnull align 8 dereferenceable(8) %k) unnamed_addr #5 comdat align 2 {
entry:
  %this.addr = alloca ptr, align 8
  %k.addr = alloca ptr, align 8
  store ptr %this, ptr %this.addr, align 8
  store ptr %k, ptr %k.addr, align 8
  %this1 = load ptr, ptr %this.addr, align 8
  %m_key = getelementptr inbounds %struct._key_data, ptr %this1, i32 0, i32 0
  %0 = load ptr, ptr %k.addr, align 8
  call void @llvm.memcpy.p0.p0.i64(ptr align 8 %m_key, ptr align 8 %0, i64 8, i1 false)
  %m_value = getelementptr inbounds %struct._key_data, ptr %this1, i32 0, i32 1
  call void @_ZN12param_descrs3imp4infoC2Ev(ptr noundef nonnull align 8 dereferenceable(32) %m_value)
  ret void
}

; Function Attrs: mustprogress uwtable
define linkonce_odr hidden void @_ZN9table2mapI17default_map_entryI6symbolN12param_descrs3imp4infoEE16symbol_hash_proc14symbol_eq_procE6removeERKS1_(ptr noundef nonnull align 8 dereferenceable(24) %this, ptr noundef nonnull align 8 dereferenceable(8) %k) #5 comdat align 2 {
entry:
  %this.addr = alloca ptr, align 8
  %k.addr = alloca ptr, align 8
  %ref.tmp = alloca %struct._key_data, align 8
  store ptr %this, ptr %this.addr, align 8
  store ptr %k, ptr %k.addr, align 8
  %this1 = load ptr, ptr %this.addr, align 8
  %m_table = getelementptr inbounds %class.table2map, ptr %this1, i32 0, i32 0
  %0 = load ptr, ptr %k.addr, align 8
  call void @_ZN9_key_dataI6symbolN12param_descrs3imp4infoEEC2ERKS0_(ptr noundef nonnull align 8 dereferenceable(40) %ref.tmp, ptr noundef nonnull align 8 dereferenceable(8) %0)
  call void @_ZN14core_hashtableI17default_map_entryI6symbolN12param_descrs3imp4infoEEN9table2mapIS5_16symbol_hash_proc14symbol_eq_procE15entry_hash_procENS9_13entry_eq_procEE6removeERK9_key_dataIS1_S4_E(ptr noundef nonnull align 8 dereferenceable(20) %m_table, ptr noundef nonnull align 8 dereferenceable(40) %ref.tmp)
  ret void
}

; Function Attrs: mustprogress uwtable
define linkonce_odr hidden void @_ZN9table2mapI17default_map_entryI6symbolN12param_descrs3imp4infoEE16symbol_hash_proc14symbol_eq_procE5eraseERKS1_(ptr noundef nonnull align 8 dereferenceable(24) %this, ptr noundef nonnull align 8 dereferenceable(8) %k) #5 comdat align 2 {
entry:
  %this.addr = alloca ptr, align 8
  %k.addr = alloca ptr, align 8
  store ptr %this, ptr %this.addr, align 8
  store ptr %k, ptr %k.addr, align 8
  %this1 = load ptr, ptr %this.addr, align 8
  %0 = load ptr, ptr %k.addr, align 8
  call void @_ZN9table2mapI17default_map_entryI6symbolN12param_descrs3imp4infoEE16symbol_hash_proc14symbol_eq_procE6removeERKS1_(ptr noundef nonnull align 8 dereferenceable(24) %this1, ptr noundef nonnull align 8 dereferenceable(8) %0)
  ret void
}

; Function Attrs: mustprogress uwtable
define linkonce_odr hidden void @_ZN12param_descrs3imp5eraseERK6symbol(ptr noundef nonnull align 8 dereferenceable(32) %this, ptr noundef nonnull align 8 dereferenceable(8) %name) #5 comdat align 2 {
entry:
  %this.addr = alloca ptr, align 8
  %name.addr = alloca ptr, align 8
  store ptr %this, ptr %this.addr, align 8
  store ptr %name, ptr %name.addr, align 8
  %this1 = load ptr, ptr %this.addr, align 8
  %m_info = getelementptr inbounds %"struct.param_descrs::imp", ptr %this1, i32 0, i32 0
  %0 = load ptr, ptr %name.addr, align 8
  call void @_ZN9table2mapI17default_map_entryI6symbolN12param_descrs3imp4infoEE16symbol_hash_proc14symbol_eq_procE5eraseERKS1_(ptr noundef nonnull align 8 dereferenceable(24) %m_info, ptr noundef nonnull align 8 dereferenceable(8) %0)
  ret void
}

; Function Attrs: mustprogress uwtable
define hidden void @_ZN12param_descrs5eraseERK6symbol(ptr noundef nonnull align 8 dereferenceable(8) %this, ptr noundef nonnull align 8 dereferenceable(8) %name) #5 align 2 {
entry:
  %this.addr = alloca ptr, align 8
  %name.addr = alloca ptr, align 8
  store ptr %this, ptr %this.addr, align 8
  store ptr %name, ptr %name.addr, align 8
  %this1 = load ptr, ptr %this.addr, align 8
  %m_imp = getelementptr inbounds %class.param_descrs, ptr %this1, i32 0, i32 0
  %0 = load ptr, ptr %m_imp, align 8
  %1 = load ptr, ptr %name.addr, align 8
  call void @_ZN12param_descrs3imp5eraseERK6symbol(ptr noundef nonnull align 8 dereferenceable(32) %0, ptr noundef nonnull align 8 dereferenceable(8) %1)
  ret void
}