; Function Attrs: mustprogress uwtable
define hidden void @_ZN12param_descrs5eraseERK6symbol(ptr nocapture noundef nonnull readonly align 8 dereferenceable(8) %this, ptr nocapture noundef nonnull readonly align 8 dereferenceable(8) %name) local_unnamed_addr #3 align 2 {
entry:
  %ref.tmp.i.i.i = alloca %struct._key_data, align 8
  %0 = load ptr, ptr %this, align 8
  call void @llvm.lifetime.start.p0(i64 40, ptr nonnull %ref.tmp.i.i.i)
  %1 = load i64, ptr %name, align 8
  store i64 %1, ptr %ref.tmp.i.i.i, align 8
  %m_value.i.i.i.i = getelementptr inbounds i8, ptr %ref.tmp.i.i.i, i64 8
  store i32 19, ptr %m_value.i.i.i.i, align 8
  %m_descr.i.i.i.i.i = getelementptr inbounds i8, ptr %ref.tmp.i.i.i, i64 16
  call void @llvm.memset.p0.i64(ptr noundef nonnull align 8 dereferenceable(24) %m_descr.i.i.i.i.i, i8 0, i64 24, i1 false)
  call void @_ZN14core_hashtableI17default_map_entryI6symbolN12param_descrs3imp4infoEEN9table2mapIS5_16symbol_hash_proc14symbol_eq_procE15entry_hash_procENS9_13entry_eq_procEE6removeERK9_key_dataIS1_S4_E(ptr noundef nonnull align 8 dereferenceable(20) %0, ptr noundef nonnull align 8 dereferenceable(40) %ref.tmp.i.i.i)
  call void @llvm.lifetime.end.p0(i64 40, ptr nonnull %ref.tmp.i.i.i)
  ret void
}